target datalayout = "e-m:e-p270:32:32-p271:32:32-p272:64:64-i64:64-i128:128-f80:128-n8:16:32:64-S128"
target triple = "x86_64-pc-linux-gnu"

%struct.SDL_Surface = type { i32, i32, i32, i32, i32, ptr, i32, ptr, i32, i32, ptr, i32, ptr, i32, ptr, i32, %struct.SDL_Rect, %struct.SDL_BlitMap }
%struct.SDL_Rect = type { i32, i32, i32, i32 }
%struct.SDL_BlitMap = type { i32, ptr, ptr, %struct.SDL_BlitInfo, i32, i32 }
%struct.SDL_BlitInfo = type { ptr, ptr, i32, i32, i32, i32, ptr, ptr, i32, i32, i32, i32, ptr, ptr, ptr, ptr, ptr, ptr, i32, i32, i8, i8, i8, i8 }

@SDL_surface_magic = internal global i8 0, align 1
@.str.7 = private unnamed_addr constant [25 x i8] c"SDL.surface.HDR_headroom\00", align 1

; Function Attrs: nounwind uwtable
define hidden zeroext i1 @SDL_SurfaceValid(ptr noundef %0) #0 {
  %2 = alloca ptr, align 8
  store ptr %0, ptr %2, align 8
  %3 = load ptr, ptr %2, align 8
  %4 = icmp ne ptr %3, null
  br i1 %4, label %5, label %10

5:                                                ; preds = %1
  %6 = load ptr, ptr %2, align 8
  %7 = getelementptr inbounds nuw %struct.SDL_Surface, ptr %6, i32 0, i32 7
  %8 = load ptr, ptr %7, align 8
  %9 = icmp eq ptr %8, @SDL_surface_magic
  br label %10

10:                                               ; preds = %5, %1
  %11 = phi i1 [ false, %1 ], [ %9, %5 ]
  ret i1 %11
}

; Function Attrs: nounwind uwtable
define hidden float @SDL_GetSurfaceHDRHeadroom(ptr noundef %0, i32 noundef %1) #0 {
  %3 = alloca float, align 4
  %4 = alloca ptr, align 8
  %5 = alloca i32, align 4
  %6 = alloca i32, align 4
  %7 = alloca i32, align 4
  %8 = alloca float, align 4
  %9 = alloca i32, align 4
  store ptr %0, ptr %4, align 8
  store i32 %1, ptr %5, align 4
  call void @llvm.lifetime.start.p0(i64 4, ptr %6) #8
  %10 = load i32, ptr %5, align 4
  %11 = lshr i32 %10, 5
  %12 = and i32 %11, 31
  store i32 %12, ptr %6, align 4
  %13 = load i32, ptr %6, align 4
  %14 = icmp eq i32 %13, 8
  br i1 %14, label %18, label %15

15:                                               ; preds = %2
  %16 = load i32, ptr %6, align 4
  %17 = icmp eq i32 %16, 16
  br i1 %17, label %18, label %30

18:                                               ; preds = %15, %2
  call void @llvm.lifetime.start.p0(i64 4, ptr %7) #8
  call void @llvm.lifetime.start.p0(i64 4, ptr %8) #8
  store float 0.000000e+00, ptr %8, align 4
  %19 = load ptr, ptr %4, align 8
  %20 = call zeroext i1 @SDL_SurfaceValid(ptr noundef %19)
  br i1 %20, label %21, label %25

21:                                               ; preds = %18
  %22 = load ptr, ptr %4, align 8
  %23 = getelementptr inbounds nuw %struct.SDL_Surface, ptr %22, i32 0, i32 9
  %24 = load i32, ptr %23, align 4
  store i32 %24, ptr %7, align 4
  br label %26

25:                                               ; preds = %18
  store i32 0, ptr %7, align 4
  br label %26

26:                                               ; preds = %25, %21
  %27 = load i32, ptr %7, align 4
  %28 = load float, ptr %8, align 4
  %29 = call float @SDL_GetFloatProperty_REAL(i32 noundef %27, ptr noundef @.str.7, float noundef %28)
  store float %29, ptr %3, align 4
  store i32 1, ptr %9, align 4
  call void @llvm.lifetime.end.p0(i64 4, ptr %8) #8
  call void @llvm.lifetime.end.p0(i64 4, ptr %7) #8
  br label %31

30:                                               ; preds = %15
  store float 1.000000e+00, ptr %3, align 4
  store i32 1, ptr %9, align 4
  br label %31

31:                                               ; preds = %30, %26
  call void @llvm.lifetime.end.p0(i64 4, ptr %6) #8
  %32 = load float, ptr %3, align 4
  ret float %32
}

; Function Attrs: nounwind uwtable
define hidden float @SDL_GetDefaultHDRHeadroom(i32 noundef %0) #0 {
  %2 = alloca i32, align 4
  store i32 %0, ptr %2, align 4
  %3 = load i32, ptr %2, align 4
  %4 = call float @SDL_GetSurfaceHDRHeadroom(ptr noundef null, i32 noundef %3)
  ret float %4
}