; Function Attrs: nounwind uwtable
define hidden float @SDL_GetDefaultHDRHeadroom(i32 noundef %0) local_unnamed_addr #2 {
  %2 = lshr i32 %0, 5
  %3 = and i32 %2, 31
  switch i32 %3, label %SDL_GetSurfaceHDRHeadroom.exit [
    i32 16, label %4
    i32 8, label %4
  ]

4:                                                ; preds = %1, %1
  %5 = tail call float @SDL_GetFloatProperty_REAL(i32 noundef 0, ptr noundef nonnull @.str.7, float noundef 0.000000e+00) #10
  br label %SDL_GetSurfaceHDRHeadroom.exit

SDL_GetSurfaceHDRHeadroom.exit:                   ; preds = %1, %4
  %.0.i = phi float [ %5, %4 ], [ 1.000000e+00, %1 ]
  ret float %.0.i
}